target datalayout = "e-m:e-p270:32:32-p271:32:32-p272:64:64-i64:64-i128:128-f80:128-n8:16:32:64-S128"
target triple = "x86_64-pc-linux-gnu"

%struct.JSValue = type { %union.JSValueUnion, i64 }
%union.JSValueUnion = type { double }

; Function Attrs: nounwind uwtable
define internal ptr @JS_ToCString(ptr noundef %0, i64 %1, i64 %2) #0 {
  %4 = alloca %struct.JSValue, align 8
  %5 = alloca ptr, align 8
  %6 = getelementptr inbounds { i64, i64 }, ptr %4, i32 0, i32 0
  store i64 %1, ptr %6, align 8
  %7 = getelementptr inbounds { i64, i64 }, ptr %4, i32 0, i32 1
  store i64 %2, ptr %7, align 8
  store ptr %0, ptr %5, align 8
  %8 = load ptr, ptr %5, align 8
  %9 = getelementptr inbounds { i64, i64 }, ptr %4, i32 0, i32 0
  %10 = load i64, ptr %9, align 8
  %11 = getelementptr inbounds { i64, i64 }, ptr %4, i32 0, i32 1
  %12 = load i64, ptr %11, align 8
  %13 = call ptr @JS_ToCStringLen2(ptr noundef %8, ptr noundef null, i64 %10, i64 %12, i32 noundef 0)
  ret ptr %13
}

; Function Attrs: nounwind uwtable
define internal { i64, i64 } @js_std_unsetenv(ptr noundef %0, i64 %1, i64 %2, i32 noundef %3, ptr noundef %4) #0 {
  %6 = alloca %struct.JSValue, align 8
  %7 = alloca %struct.JSValue, align 8
  %8 = alloca ptr, align 8
  %9 = alloca i32, align 4
  %10 = alloca ptr, align 8
  %11 = alloca ptr, align 8
  %12 = getelementptr inbounds { i64, i64 }, ptr %7, i32 0, i32 0
  store i64 %1, ptr %12, align 8
  %13 = getelementptr inbounds { i64, i64 }, ptr %7, i32 0, i32 1
  store i64 %2, ptr %13, align 8
  store ptr %0, ptr %8, align 8
  store i32 %3, ptr %9, align 4
  store ptr %4, ptr %10, align 8
  %14 = load ptr, ptr %8, align 8
  %15 = load ptr, ptr %10, align 8
  %16 = getelementptr %struct.JSValue, ptr %15, i64 0
  %17 = getelementptr inbounds { i64, i64 }, ptr %16, i32 0, i32 0
  %18 = load i64, ptr %17, align 8
  %19 = getelementptr inbounds { i64, i64 }, ptr %16, i32 0, i32 1
  %20 = load i64, ptr %19, align 8
  %21 = call ptr @JS_ToCString(ptr noundef %14, i64 %18, i64 %20)
  store ptr %21, ptr %11, align 8
  %22 = load ptr, ptr %11, align 8
  %23 = icmp ne ptr %22, null
  br i1 %23, label %27, label %24

24:                                               ; preds = %5
  %25 = getelementptr inbounds %struct.JSValue, ptr %6, i32 0, i32 0
  store i32 0, ptr %25, align 8
  %26 = getelementptr inbounds %struct.JSValue, ptr %6, i32 0, i32 1
  store i64 6, ptr %26, align 8
  br label %34

27:                                               ; preds = %5
  %28 = load ptr, ptr %11, align 8
  %29 = call i32 @unsetenv(ptr noundef %28) #12
  %30 = load ptr, ptr %8, align 8
  %31 = load ptr, ptr %11, align 8
  call void @JS_FreeCString(ptr noundef %30, ptr noundef %31)
  %32 = getelementptr inbounds %struct.JSValue, ptr %6, i32 0, i32 0
  store i32 0, ptr %32, align 8
  %33 = getelementptr inbounds %struct.JSValue, ptr %6, i32 0, i32 1
  store i64 3, ptr %33, align 8
  br label %34

34:                                               ; preds = %27, %24
  %35 = load { i64, i64 }, ptr %6, align 8
  ret { i64, i64 } %35
}