; Function Attrs: nounwind uwtable
define internal { i64, i64 } @js_std_unsetenv(ptr noundef %0, i64 %1, i64 %2, i32 %3, ptr nocapture noundef readonly %4) #0 {
  %6 = load i64, ptr %4, align 8
  %7 = getelementptr inbounds i8, ptr %4, i64 8
  %8 = load i64, ptr %7, align 8
  %9 = tail call ptr @JS_ToCStringLen2(ptr noundef %0, ptr noundef null, i64 %6, i64 %8, i32 noundef 0) #29
  %.not = icmp eq ptr %9, null
  br i1 %.not, label %12, label %10

10:                                               ; preds = %5
  %11 = tail call i32 @unsetenv(ptr noundef nonnull %9) #29
  tail call void @JS_FreeCString(ptr noundef %0, ptr noundef nonnull %9) #29
  br label %12

12:                                               ; preds = %5, %10
  %.sroa.3.sroa.1.0 = phi i64 [ 3, %10 ], [ 6, %5 ]
  %.fca.1.insert = insertvalue { i64, i64 } { i64 0, i64 poison }, i64 %.sroa.3.sroa.1.0, 1
  ret { i64, i64 } %.fca.1.insert
}